Certificate:
    Data:
        Version: 3 (0x2)
        Serial Number: 1 (0x1)
        Signature Algorithm: sha256WithRSAEncryption
        Issuer: O=Test Org, CN=Test Org rauc CA Development
        Validity
            Not Before: Jan  1 00:00:00 1970 GMT
            Not After : Dec 31 23:59:59 9999 GMT
        Subject: O=Test Org, CN=Test Org rauc CA Development
        Subject Public Key Info:
            Public Key Algorithm: rsaEncryption
                RSA Public-Key: (2048 bit)
                Modulus:
                    00:ad:5c:40:ec:1c:2b:43:5f:6e:55:9f:cd:6f:90:
                    2f:02:d3:7d:9d:54:ce:54:b7:06:28:fe:5b:24:37:
                    80:0b:ab:74:5d:3b:5b:d3:89:83:f5:a0:04:a8:11:
                    60:31:93:a6:51:7d:d3:a4:41:d6:ed:8b:d4:91:49:
                    57:ca:f4:43:1f:a1:0c:29:04:3e:c8:03:ce:d7:e4:
                    b9:10:c2:a9:c1:7f:98:fc:c0:30:f8:21:b7:f8:85:
                    df:6d:18:66:7c:e6:4a:a9:88:fb:18:f3:3a:69:da:
                    1b:b9:7e:29:be:8d:ac:21:1c:3d:e2:25:87:14:16:
                    fe:b0:fe:7e:18:5a:69:28:71:d1:f0:db:7d:ab:7a:
                    79:cd:06:4c:45:b2:7c:cc:fb:65:b6:97:2c:cb:e1:
                    b5:1e:57:3f:d4:b7:bd:19:bc:26:1d:0a:5e:da:c7:
                    f9:04:ec:04:a2:1d:61:a0:68:c5:27:51:39:45:e9:
                    25:92:f9:f9:c4:bf:01:17:90:7a:7c:fd:97:b5:29:
                    ce:60:a9:21:a8:52:8e:7f:98:9f:ee:e8:cf:01:ab:
                    e4:11:ce:e9:d3:c5:e4:1c:7a:6f:eb:c0:a2:9f:2a:
                    2d:a1:5a:d4:d5:01:81:c3:fb:9d:d7:b9:6e:4c:c1:
                    72:d7:87:10:ea:5a:9a:c1:33:88:9d:5e:d9:c2:e8:
                    5b:b5
                Exponent: 65537 (0x10001)
        X509v3 extensions:
            X509v3 Subject Key Identifier: 
                F3:C4:DC:D8:B4:D0:A0:E1:AE:C5:0E:BB:51:17:0F:80:FD:E8:74:6C
            X509v3 Authority Key Identifier: 
                keyid:F3:C4:DC:D8:B4:D0:A0:E1:AE:C5:0E:BB:51:17:0F:80:FD:E8:74:6C
                DirName:/O=Test Org/CN=Test Org rauc CA Development
                serial:01

            X509v3 Basic Constraints: 
                CA:TRUE
    Signature Algorithm: sha256WithRSAEncryption
         5e:71:cb:b3:56:44:67:84:16:81:49:46:24:05:f0:30:50:62:
         8a:24:64:4e:b3:a9:f2:36:47:7e:08:8f:25:96:d7:ae:f2:3e:
         e8:3e:e3:c7:0d:d4:a5:e2:7e:a5:13:c9:37:f8:40:ac:a1:20:
         33:88:a1:49:4b:39:a3:30:06:33:25:81:70:1a:8e:99:d0:9a:
         da:09:68:4a:0f:ad:00:65:99:44:e0:e7:dc:80:fd:a3:cb:5d:
         70:30:a6:80:98:26:81:c2:31:35:7e:73:c8:e5:9e:3d:fe:af:
         d9:43:c7:e9:39:ba:13:2c:2c:43:e5:a9:8f:73:2f:af:0e:a9:
         ca:2a:03:f1:d4:b7:e8:6b:73:7b:23:23:48:29:32:18:ce:21:
         00:d8:41:de:06:0b:2d:d2:b5:70:83:3b:b0:b3:43:03:f3:54:
         f8:19:fb:a4:33:d5:2e:e4:18:ac:f9:cd:85:2b:33:97:25:c3:
         fc:b2:62:da:b0:44:c6:41:ff:db:e0:fc:f8:d5:5d:ee:73:9a:
         2a:02:ba:8a:5a:d4:aa:86:c4:73:8d:9f:ec:5e:8a:2a:c7:e4:
         29:b3:53:b2:4c:be:e3:47:93:b7:99:1c:37:db:b4:99:2f:32:
         22:58:d0:8e:89:b1:c0:a7:24:51:4d:db:00:20:c2:7b:1c:ff:
         8f:54:7b:3f
-----BEGIN CERTIFICATE-----
MIIDhjCCAm6gAwIBAgIBATANBgkqhkiG9w0BAQsFADA6MREwDwYDVQQKDAhUZXN0
IE9yZzElMCMGA1UEAwwcVGVzdCBPcmcgcmF1YyBDQSBEZXZlbG9wbWVudDAgFw03
MDAxMDEwMDAwMDBaGA85OTk5MTIzMTIzNTk1OVowOjERMA8GA1UECgwIVGVzdCBP
cmcxJTAjBgNVBAMMHFRlc3QgT3JnIHJhdWMgQ0EgRGV2ZWxvcG1lbnQwggEiMA0G
CSqGSIb3DQEBAQUAA4IBDwAwggEKAoIBAQCtXEDsHCtDX25Vn81vkC8C032dVM5U
twYo/lskN4ALq3RdO1vTiYP1oASoEWAxk6ZRfdOkQdbti9SRSVfK9EMfoQwpBD7I
A87X5LkQwqnBf5j8wDD4Ibf4hd9tGGZ85kqpiPsY8zpp2hu5fim+jawhHD3iJYcU
Fv6w/n4YWmkocdHw232rennNBkxFsnzM+2W2lyzL4bUeVz/Ut70ZvCYdCl7ax/kE
7ASiHWGgaMUnUTlF6SWS+fnEvwEXkHp8/Ze1Kc5gqSGoUo5/mJ/u6M8Bq+QRzunT
xeQcem/rwKKfKi2hWtTVAYHD+53XuW5MwXLXhxDqWprBM4idXtnC6Fu1AgMBAAGj
gZQwgZEwHQYDVR0OBBYEFPPE3Ni00KDhrsUOu1EXD4D96HRsMGIGA1UdIwRbMFmA
FPPE3Ni00KDhrsUOu1EXD4D96HRsoT6kPDA6MREwDwYDVQQKDAhUZXN0IE9yZzEl
MCMGA1UEAwwcVGVzdCBPcmcgcmF1YyBDQSBEZXZlbG9wbWVudIIBATAMBgNVHRME
BTADAQH/MA0GCSqGSIb3DQEBCwUAA4IBAQBeccuzVkRnhBaBSUYkBfAwUGKKJGRO
s6nyNkd+CI8llteu8j7oPuPHDdSl4n6lE8k3+ECsoSAziKFJSzmjMAYzJYFwGo6Z
0JraCWhKD60AZZlE4OfcgP2jy11wMKaAmCaBwjE1fnPI5Z49/q/ZQ8fpOboTLCxD
5amPcy+vDqnKKgPx1Lfoa3N7IyNIKTIYziEA2EHeBgst0rVwgzuws0MD81T4Gfuk
M9Uu5Bis+c2FKzOXJcP8smLasETGQf/b4Pz41V3uc5oqArqKWtSqhsRzjZ/sXooq
x+Qps1OyTL7jR5O3mRw327SZLzIiWNCOibHApyRRTdsAIMJ7HP+PVHs/
-----END CERTIFICATE-----
