Certificate:
    Data:
        Version: 3 (0x2)
        Serial Number: 2 (0x2)
        Signature Algorithm: sha256WithRSAEncryption
        Issuer: O=Test Org, CN=Test Org rauc CA Development
        Validity
            Not Before: Jan  1 00:00:00 1970 GMT
            Not After : Dec 31 23:59:59 9999 GMT
        Subject: O=Test Org, CN=Test Org Development-1
        Subject Public Key Info:
            Public Key Algorithm: rsaEncryption
                RSA Public-Key: (2048 bit)
                Modulus:
                    00:ab:e4:7f:e8:d3:2f:a5:4d:e4:d7:27:22:71:44:
                    e3:cb:20:77:e5:a8:80:08:f2:8d:d3:52:05:db:85:
                    34:e8:5b:b7:d3:e4:65:6c:2b:00:4b:31:61:7d:b9:
                    82:73:13:bd:d4:a7:13:3f:db:7d:24:37:92:30:97:
                    2f:11:c0:2b:82:d6:92:b5:b8:1f:0f:78:75:14:b1:
                    b3:74:bf:c8:3f:7c:c8:23:e1:7d:40:15:cb:41:e9:
                    47:59:66:67:4d:f4:51:11:27:0c:1c:d0:7f:c1:d2:
                    09:d4:5a:dd:a8:b4:22:f8:5c:37:9c:45:fd:68:73:
                    ad:65:05:9b:6a:15:77:e4:96:50:ee:38:37:98:c2:
                    79:5f:ed:23:18:42:1c:c3:6c:5c:a8:eb:12:34:31:
                    80:d7:b1:02:df:35:93:e0:7b:ec:d2:00:3f:ab:68:
                    50:77:11:b3:c4:29:30:a2:7f:b6:cd:e6:fc:ef:1a:
                    b9:38:d9:bb:ca:8a:45:1a:a9:e8:96:9e:a1:71:f7:
                    41:b5:5e:21:e2:d8:d7:bb:f2:48:25:3c:ed:c4:c0:
                    b9:50:ad:66:29:38:df:69:a8:72:a0:81:12:1a:af:
                    ef:15:c5:b8:d2:06:91:c4:da:19:41:cc:03:07:0a:
                    3d:90:50:fb:dd:fe:9f:87:04:9b:85:f0:ce:a8:e4:
                    4e:3d
                Exponent: 65537 (0x10001)
        X509v3 extensions:
            X509v3 Subject Key Identifier: 
                CD:66:43:55:E8:B1:E4:6C:19:6D:FF:D1:C8:2B:7B:C3:D2:C8:9B:0E
            X509v3 Authority Key Identifier: 
                keyid:F3:C4:DC:D8:B4:D0:A0:E1:AE:C5:0E:BB:51:17:0F:80:FD:E8:74:6C
                DirName:/O=Test Org/CN=Test Org rauc CA Development
                serial:01

            X509v3 Basic Constraints: 
                CA:FALSE
    Signature Algorithm: sha256WithRSAEncryption
         a2:81:7d:3b:4c:86:ce:f7:44:b2:ff:97:e5:62:7f:4b:c3:13:
         81:a7:65:36:58:f2:69:6a:e6:77:46:70:ac:8c:55:7f:21:fa:
         0e:53:46:df:ea:9e:29:b1:a4:12:a6:89:88:d8:74:13:f6:28:
         67:19:1a:66:ec:04:03:98:49:72:f6:b4:a3:78:26:91:70:1c:
         68:02:96:27:11:79:e6:c1:3f:9d:8f:f3:37:15:2f:7c:fe:59:
         95:9d:0f:02:9e:2a:55:aa:31:21:5b:00:88:6b:48:9d:52:ed:
         96:49:b5:fe:85:dd:00:91:3c:ce:92:3c:ae:1c:9e:62:4c:33:
         1e:3e:20:7c:44:68:eb:85:94:c2:37:1f:cc:f6:65:e1:12:ae:
         b8:a6:02:27:a3:e2:23:1b:03:c6:b4:e0:2a:a8:24:7c:17:a1:
         11:e2:73:2b:83:82:0e:13:74:48:6c:84:58:50:98:10:71:10:
         04:16:56:14:6b:2a:9c:41:90:40:d9:d3:64:bb:f3:98:81:02:
         13:0a:9e:10:98:20:60:3a:37:96:5d:d0:9c:86:dd:de:12:0b:
         75:96:f9:88:f8:de:4e:0d:52:56:e3:45:59:c0:88:ea:60:22:
         ed:bb:67:ac:22:78:3b:93:57:93:54:04:3a:75:ec:eb:73:96:
         bc:36:fe:d9
-----BEGIN CERTIFICATE-----
MIIDfTCCAmWgAwIBAgIBAjANBgkqhkiG9w0BAQsFADA6MREwDwYDVQQKDAhUZXN0
IE9yZzElMCMGA1UEAwwcVGVzdCBPcmcgcmF1YyBDQSBEZXZlbG9wbWVudDAgFw03
MDAxMDEwMDAwMDBaGA85OTk5MTIzMTIzNTk1OVowNDERMA8GA1UECgwIVGVzdCBP
cmcxHzAdBgNVBAMMFlRlc3QgT3JnIERldmVsb3BtZW50LTEwggEiMA0GCSqGSIb3
DQEBAQUAA4IBDwAwggEKAoIBAQCr5H/o0y+lTeTXJyJxROPLIHflqIAI8o3TUgXb
hTToW7fT5GVsKwBLMWF9uYJzE73UpxM/230kN5Iwly8RwCuC1pK1uB8PeHUUsbN0
v8g/fMgj4X1AFctB6UdZZmdN9FERJwwc0H/B0gnUWt2otCL4XDecRf1oc61lBZtq
FXfkllDuODeYwnlf7SMYQhzDbFyo6xI0MYDXsQLfNZPge+zSAD+raFB3EbPEKTCi
f7bN5vzvGrk42bvKikUaqeiWnqFx90G1XiHi2Ne78kglPO3EwLlQrWYpON9pqHKg
gRIar+8VxbjSBpHE2hlBzAMHCj2QUPvd/p+HBJuF8M6o5E49AgMBAAGjgZEwgY4w
HQYDVR0OBBYEFM1mQ1XoseRsGW3/0cgre8PSyJsOMGIGA1UdIwRbMFmAFPPE3Ni0
0KDhrsUOu1EXD4D96HRsoT6kPDA6MREwDwYDVQQKDAhUZXN0IE9yZzElMCMGA1UE
AwwcVGVzdCBPcmcgcmF1YyBDQSBEZXZlbG9wbWVudIIBATAJBgNVHRMEAjAAMA0G
CSqGSIb3DQEBCwUAA4IBAQCigX07TIbO90Sy/5flYn9LwxOBp2U2WPJpauZ3RnCs
jFV/IfoOU0bf6p4psaQSpomI2HQT9ihnGRpm7AQDmEly9rSjeCaRcBxoApYnEXnm
wT+dj/M3FS98/lmVnQ8CnipVqjEhWwCIa0idUu2WSbX+hd0AkTzOkjyuHJ5iTDMe
PiB8RGjrhZTCNx/M9mXhEq64pgIno+IjGwPGtOAqqCR8F6ER4nMrg4IOE3RIbIRY
UJgQcRAEFlYUayqcQZBA2dNku/OYgQITCp4QmCBgOjeWXdCcht3eEgt1lvmI+N5O
DVJW40VZwIjqYCLtu2esIng7k1eTVAQ6dezrc5a8Nv7Z
-----END CERTIFICATE-----
